; Function Attrs: mustprogress uwtable
define hidden void @_ZN3euf10completion6mk_andEP4exprS2_(ptr noalias nocapture writeonly sret(%class.obj_ref.73) align 8 %agg.result, ptr nocapture noundef nonnull readonly align 8 dereferenceable(701) %this, ptr noundef %a, ptr noundef %b) local_unnamed_addr #3 align 2 {
entry:
  %m = getelementptr inbounds i8, ptr %this, i64 8
  %0 = load ptr, ptr %m, align 8
  %m_true.i = getelementptr inbounds i8, ptr %0, i64 856
  %1 = load ptr, ptr %m_true.i, align 8
  %cmp.i = icmp eq ptr %1, %a
  br i1 %cmp.i, label %if.then, label %if.end

if.then:                                          ; preds = %entry
  store ptr %b, ptr %agg.result, align 8
  %m_manager.i = getelementptr inbounds i8, ptr %agg.result, i64 8
  store ptr %0, ptr %m_manager.i, align 8
  %tobool.not.i.i = icmp eq ptr %b, null
  br i1 %tobool.not.i.i, label %return, label %return.sink.split

if.end:                                           ; preds = %entry
  %cmp.i6 = icmp eq ptr %1, %b
  br i1 %cmp.i6, label %if.then5, label %if.end7

if.then5:                                         ; preds = %if.end
  store ptr %a, ptr %agg.result, align 8
  %m_manager.i7 = getelementptr inbounds i8, ptr %agg.result, i64 8
  store ptr %0, ptr %m_manager.i7, align 8
  %tobool.not.i.i8 = icmp eq ptr %a, null
  br i1 %tobool.not.i.i8, label %return, label %return.sink.split

if.end7:                                          ; preds = %if.end
  %call.i = tail call noundef ptr @_ZN11ast_manager6mk_appEiiP4exprS1_(ptr noundef nonnull align 8 dereferenceable(976) %0, i32 noundef 0, i32 noundef 5, ptr noundef %a, ptr noundef %b)
  %2 = load ptr, ptr %m, align 8
  store ptr %call.i, ptr %agg.result, align 8
  %m_manager.i13 = getelementptr inbounds i8, ptr %agg.result, i64 8
  store ptr %2, ptr %m_manager.i13, align 8
  %tobool.not.i.i14 = icmp eq ptr %call.i, null
  br i1 %tobool.not.i.i14, label %return, label %return.sink.split

return.sink.split:                                ; preds = %if.end7, %if.then5, %if.then
  %b.sink = phi ptr [ %b, %if.then ], [ %a, %if.then5 ], [ %call.i, %if.end7 ]
  %m_ref_count.i.i.i.i = getelementptr inbounds i8, ptr %b.sink, i64 8
  %3 = load i32, ptr %m_ref_count.i.i.i.i, align 4
  %inc.i.i.i.i17 = add i32 %3, 1
  store i32 %inc.i.i.i.i17, ptr %m_ref_count.i.i.i.i, align 4
  br label %return

return:                                           ; preds = %return.sink.split, %if.end7, %if.then5, %if.then
  ret void
}